; Function Attrs: mustprogress nounwind uwtable
define noundef zeroext i1 @_ZN3g2o33HyperGraphElementActionCollection16unregisterActionERKSt10shared_ptrINS_23HyperGraphElementActionEE(ptr noundef nonnull align 8 dereferenceable(120) %0, ptr noundef nonnull readonly align 8 captures(none) dereferenceable(16) %1) local_unnamed_addr #4 align 2 {
  %3 = getelementptr inbounds nuw i8, ptr %0, i64 72
  %4 = getelementptr inbounds nuw i8, ptr %0, i64 96
  %5 = load ptr, ptr %4, align 8, !tbaa !29
  %6 = getelementptr inbounds nuw i8, ptr %0, i64 80
  %.not11.not = icmp eq ptr %5, %6
  br i1 %.not11.not, label %.loopexit, label %.lr.ph

.lr.ph:                                           ; preds = %2
  %7 = load ptr, ptr %1, align 8, !tbaa !37
  br label %8

8:                                                ; preds = %.lr.ph, %13
  %.sroa.05.012 = phi ptr [ %5, %.lr.ph ], [ %14, %13 ]
  %9 = getelementptr inbounds nuw i8, ptr %.sroa.05.012, i64 64
  %10 = load ptr, ptr %9, align 8, !tbaa !37
  %11 = icmp eq ptr %10, %7
  br i1 %11, label %12, label %13

12:                                               ; preds = %8
  tail call void @_ZNSt8_Rb_treeINSt7__cxx1112basic_stringIcSt11char_traitsIcESaIcEEESt4pairIKS5_St10shared_ptrIN3g2o23HyperGraphElementActionEEESt10_Select1stISC_ESt4lessIS5_ESaISC_EE12_M_erase_auxESt23_Rb_tree_const_iteratorISC_E(ptr noundef nonnull align 8 dereferenceable(48) %3, ptr nonnull %.sroa.05.012)
  br label %.loopexit

13:                                               ; preds = %8
  %14 = tail call noundef ptr @_ZSt18_Rb_tree_incrementPSt18_Rb_tree_node_base(ptr noundef nonnull %.sroa.05.012) #29
  %.not.not = icmp eq ptr %14, %6
  br i1 %.not.not, label %.loopexit, label %8, !llvm.loop !51

.loopexit:                                        ; preds = %13, %2, %12
  %.not9 = phi i1 [ true, %12 ], [ false, %2 ], [ false, %13 ]
  ret i1 %.not9
}